; Function Attrs: mustprogress nofree nounwind uwtable
define hidden void @_ZN10FieldGroup12sort_by_sizeEv(ptr nocapture noundef nonnull readonly align 8 dereferenceable(32) %0) local_unnamed_addr #3 align 2 {
  %2 = getelementptr inbounds i8, ptr %0, i64 8
  %3 = load ptr, ptr %2, align 8
  %.not = icmp eq ptr %3, null
  br i1 %.not, label %_ZN17GrowableArrayViewIP14LayoutRawBlockE4sortEPFiPS1_S3_E.exit, label %4

4:                                                ; preds = %1
  %5 = getelementptr inbounds i8, ptr %3, i64 8
  %6 = load ptr, ptr %5, align 8
  %7 = icmp eq ptr %6, null
  br i1 %7, label %_ZN17GrowableArrayViewIP14LayoutRawBlockE4sortEPFiPS1_S3_E.exit, label %8

8:                                                ; preds = %4
  %9 = load i32, ptr %3, align 4
  %10 = sext i32 %9 to i64
  tail call void @qsort(ptr noundef nonnull %6, i64 noundef %10, i64 noundef 8, ptr noundef nonnull @_ZN14LayoutRawBlock21compare_size_invertedEPPS_S1_) #13
  br label %_ZN17GrowableArrayViewIP14LayoutRawBlockE4sortEPFiPS1_S3_E.exit

_ZN17GrowableArrayViewIP14LayoutRawBlockE4sortEPFiPS1_S3_E.exit: ; preds = %8, %4, %1
  ret void
}